; Function Attrs: mustprogress nofree norecurse nosync nounwind willreturn memory(none) uwtable
define dso_local { ptr, i64 } @_ZN4llvm3omp28getOpenMPMemoryOrderKindNameENS0_15MemoryOrderKindE(i32 noundef %0) local_unnamed_addr #2 {
switch.lookup:
  %switch.tableidx = add nsw i32 %0, -1
  %1 = sext i32 %switch.tableidx to i64
  %switch.gep = getelementptr inbounds [6 x ptr], ptr @switch.table._ZN4llvm3omp28getOpenMPMemoryOrderKindNameENS0_15MemoryOrderKindE, i64 0, i64 %1
  %switch.load = load ptr, ptr %switch.gep, align 8
  %.fca.0.insert = insertvalue { ptr, i64 } poison, ptr %switch.load, 0
  %.fca.1.insert = insertvalue { ptr, i64 } %.fca.0.insert, i64 7, 1
  ret { ptr, i64 } %.fca.1.insert
}